target datalayout = "e-m:e-p270:32:32-p271:32:32-p272:64:64-i64:64-i128:128-f80:128-n8:16:32:64-S128"
target triple = "x86_64-pc-linux-gnu"

%struct.List = type { i32, i32, i32, ptr, [0 x %union.ListCell] }
%union.ListCell = type { ptr }
%struct.TargetEntry = type { %struct.Expr, ptr, i16, ptr, i32, i32, i16, i8 }
%struct.Expr = type { i32 }
%struct.ForBothState = type { ptr, ptr, i32 }

; Function Attrs: nounwind uwtable
define dso_local void @apply_tlist_labeling(ptr noundef %0, ptr noundef %1) #0 {
  %3 = alloca ptr, align 8
  %4 = alloca ptr, align 8
  %5 = alloca ptr, align 8
  %6 = alloca ptr, align 8
  %7 = alloca %struct.ForBothState, align 8
  %8 = alloca ptr, align 8
  %9 = alloca ptr, align 8
  store ptr %0, ptr %3, align 8
  store ptr %1, ptr %4, align 8
  call void @llvm.lifetime.start.p0(i64 8, ptr %5) #7
  call void @llvm.lifetime.start.p0(i64 8, ptr %6) #7
  call void @llvm.lifetime.start.p0(i64 24, ptr %7) #7
  %10 = getelementptr inbounds nuw %struct.ForBothState, ptr %7, i32 0, i32 0
  %11 = load ptr, ptr %3, align 8
  store ptr %11, ptr %10, align 8
  %12 = getelementptr inbounds nuw %struct.ForBothState, ptr %7, i32 0, i32 1
  %13 = load ptr, ptr %4, align 8
  store ptr %13, ptr %12, align 8
  %14 = getelementptr inbounds nuw %struct.ForBothState, ptr %7, i32 0, i32 2
  store i32 0, ptr %14, align 8
  %15 = getelementptr i8, ptr %7, i64 20
  call void @llvm.memset.p0.i64(ptr align 4 %15, i8 0, i64 4, i1 false)
  br label %16

16:                                               ; preds = %103, %2
  %17 = getelementptr inbounds nuw %struct.ForBothState, ptr %7, i32 0, i32 0
  %18 = load ptr, ptr %17, align 8
  %19 = icmp ne ptr %18, null
  br i1 %19, label %20, label %37

20:                                               ; preds = %16
  %21 = getelementptr inbounds nuw %struct.ForBothState, ptr %7, i32 0, i32 2
  %22 = load i32, ptr %21, align 8
  %23 = getelementptr inbounds nuw %struct.ForBothState, ptr %7, i32 0, i32 0
  %24 = load ptr, ptr %23, align 8
  %25 = getelementptr inbounds nuw %struct.List, ptr %24, i32 0, i32 1
  %26 = load i32, ptr %25, align 4
  %27 = icmp slt i32 %22, %26
  br i1 %27, label %28, label %37

28:                                               ; preds = %20
  %29 = getelementptr inbounds nuw %struct.ForBothState, ptr %7, i32 0, i32 0
  %30 = load ptr, ptr %29, align 8
  %31 = getelementptr inbounds nuw %struct.List, ptr %30, i32 0, i32 3
  %32 = load ptr, ptr %31, align 8
  %33 = getelementptr inbounds nuw %struct.ForBothState, ptr %7, i32 0, i32 2
  %34 = load i32, ptr %33, align 8
  %35 = sext i32 %34 to i64
  %36 = getelementptr inbounds %union.ListCell, ptr %32, i64 %35
  br label %38

37:                                               ; preds = %20, %16
  br label %38

38:                                               ; preds = %37, %28
  %39 = phi ptr [ %36, %28 ], [ null, %37 ]
  store ptr %39, ptr %5, align 8
  %40 = getelementptr inbounds nuw %struct.ForBothState, ptr %7, i32 0, i32 1
  %41 = load ptr, ptr %40, align 8
  %42 = icmp ne ptr %41, null
  br i1 %42, label %43, label %60

43:                                               ; preds = %38
  %44 = getelementptr inbounds nuw %struct.ForBothState, ptr %7, i32 0, i32 2
  %45 = load i32, ptr %44, align 8
  %46 = getelementptr inbounds nuw %struct.ForBothState, ptr %7, i32 0, i32 1
  %47 = load ptr, ptr %46, align 8
  %48 = getelementptr inbounds nuw %struct.List, ptr %47, i32 0, i32 1
  %49 = load i32, ptr %48, align 4
  %50 = icmp slt i32 %45, %49
  br i1 %50, label %51, label %60

51:                                               ; preds = %43
  %52 = getelementptr inbounds nuw %struct.ForBothState, ptr %7, i32 0, i32 1
  %53 = load ptr, ptr %52, align 8
  %54 = getelementptr inbounds nuw %struct.List, ptr %53, i32 0, i32 3
  %55 = load ptr, ptr %54, align 8
  %56 = getelementptr inbounds nuw %struct.ForBothState, ptr %7, i32 0, i32 2
  %57 = load i32, ptr %56, align 8
  %58 = sext i32 %57 to i64
  %59 = getelementptr inbounds %union.ListCell, ptr %55, i64 %58
  br label %61

60:                                               ; preds = %43, %38
  br label %61

61:                                               ; preds = %60, %51
  %62 = phi ptr [ %59, %51 ], [ null, %60 ]
  store ptr %62, ptr %6, align 8
  %63 = load ptr, ptr %5, align 8
  %64 = icmp ne ptr %63, null
  br i1 %64, label %65, label %68

65:                                               ; preds = %61
  %66 = load ptr, ptr %6, align 8
  %67 = icmp ne ptr %66, null
  br label %68

68:                                               ; preds = %65, %61
  %69 = phi i1 [ false, %61 ], [ %67, %65 ]
  br i1 %69, label %71, label %70

70:                                               ; preds = %68
  call void @llvm.lifetime.end.p0(i64 24, ptr %7) #7
  br label %107

71:                                               ; preds = %68
  call void @llvm.lifetime.start.p0(i64 8, ptr %8) #7
  %72 = load ptr, ptr %5, align 8
  %73 = load ptr, ptr %72, align 8
  store ptr %73, ptr %8, align 8
  call void @llvm.lifetime.start.p0(i64 8, ptr %9) #7
  %74 = load ptr, ptr %6, align 8
  %75 = load ptr, ptr %74, align 8
  store ptr %75, ptr %9, align 8
  %76 = load ptr, ptr %9, align 8
  %77 = getelementptr inbounds nuw %struct.TargetEntry, ptr %76, i32 0, i32 3
  %78 = load ptr, ptr %77, align 8
  %79 = load ptr, ptr %8, align 8
  %80 = getelementptr inbounds nuw %struct.TargetEntry, ptr %79, i32 0, i32 3
  store ptr %78, ptr %80, align 8
  %81 = load ptr, ptr %9, align 8
  %82 = getelementptr inbounds nuw %struct.TargetEntry, ptr %81, i32 0, i32 4
  %83 = load i32, ptr %82, align 8
  %84 = load ptr, ptr %8, align 8
  %85 = getelementptr inbounds nuw %struct.TargetEntry, ptr %84, i32 0, i32 4
  store i32 %83, ptr %85, align 8
  %86 = load ptr, ptr %9, align 8
  %87 = getelementptr inbounds nuw %struct.TargetEntry, ptr %86, i32 0, i32 5
  %88 = load i32, ptr %87, align 4
  %89 = load ptr, ptr %8, align 8
  %90 = getelementptr inbounds nuw %struct.TargetEntry, ptr %89, i32 0, i32 5
  store i32 %88, ptr %90, align 4
  %91 = load ptr, ptr %9, align 8
  %92 = getelementptr inbounds nuw %struct.TargetEntry, ptr %91, i32 0, i32 6
  %93 = load i16, ptr %92, align 8
  %94 = load ptr, ptr %8, align 8
  %95 = getelementptr inbounds nuw %struct.TargetEntry, ptr %94, i32 0, i32 6
  store i16 %93, ptr %95, align 8
  %96 = load ptr, ptr %9, align 8
  %97 = getelementptr inbounds nuw %struct.TargetEntry, ptr %96, i32 0, i32 7
  %98 = load i8, ptr %97, align 2, !range !7, !noundef !8
  %99 = trunc i8 %98 to i1
  %100 = load ptr, ptr %8, align 8
  %101 = getelementptr inbounds nuw %struct.TargetEntry, ptr %100, i32 0, i32 7
  %102 = zext i1 %99 to i8
  store i8 %102, ptr %101, align 2
  call void @llvm.lifetime.end.p0(i64 8, ptr %9) #7
  call void @llvm.lifetime.end.p0(i64 8, ptr %8) #7
  br label %103

103:                                              ; preds = %71
  %104 = getelementptr inbounds nuw %struct.ForBothState, ptr %7, i32 0, i32 2
  %105 = load i32, ptr %104, align 8
  %106 = add i32 %105, 1
  store i32 %106, ptr %104, align 8
  br label %16, !llvm.loop !14

107:                                              ; preds = %70
  call void @llvm.lifetime.end.p0(i64 8, ptr %6) #7
  call void @llvm.lifetime.end.p0(i64 8, ptr %5) #7
  ret void
}