; Function Attrs: nofree norecurse nosync nounwind memory(readwrite, inaccessiblemem: none) uwtable
define dso_local void @apply_tlist_labeling(ptr noundef readonly captures(address_is_null) %0, ptr noundef readonly captures(address_is_null) %1) local_unnamed_addr #4 {
  %3 = getelementptr inbounds nuw i8, ptr %1, i64 4
  %.not = icmp eq ptr %0, null
  %.not27 = icmp eq ptr %1, null
  %4 = getelementptr inbounds nuw i8, ptr %0, i64 4
  %5 = getelementptr inbounds nuw i8, ptr %0, i64 16
  %6 = getelementptr inbounds nuw i8, ptr %1, i64 16
  %brmerge = or i1 %.not27, %.not
  br i1 %brmerge, label %.thread, label %.split.split

.split.split:                                     ; preds = %2, %23
  %indvars.iv = phi i64 [ %indvars.iv.next, %23 ], [ 0, %2 ]
  %7 = load i32, ptr %4, align 4
  %8 = sext i32 %7 to i64
  %9 = icmp slt i64 %indvars.iv, %8
  br i1 %9, label %10, label %13

10:                                               ; preds = %.split.split
  %11 = load ptr, ptr %5, align 8
  %12 = getelementptr inbounds nuw %union.ListCell, ptr %11, i64 %indvars.iv
  br label %13

13:                                               ; preds = %.split.split, %10
  %14 = phi ptr [ %12, %10 ], [ null, %.split.split ]
  %15 = load i32, ptr %3, align 4
  %16 = sext i32 %15 to i64
  %17 = icmp slt i64 %indvars.iv, %16
  br i1 %17, label %18, label %.thread

18:                                               ; preds = %13
  %19 = load ptr, ptr %6, align 8
  %20 = icmp ne ptr %14, null
  %21 = icmp ne ptr %19, null
  %22 = select i1 %20, i1 %21, i1 false
  br i1 %22, label %23, label %.thread

.thread:                                          ; preds = %13, %18, %2
  ret void

23:                                               ; preds = %18
  %24 = getelementptr inbounds nuw %union.ListCell, ptr %19, i64 %indvars.iv
  %25 = load ptr, ptr %14, align 8
  %26 = load ptr, ptr %24, align 8
  %27 = getelementptr inbounds nuw i8, ptr %26, i64 24
  %28 = load ptr, ptr %27, align 8
  %29 = getelementptr inbounds nuw i8, ptr %25, i64 24
  store ptr %28, ptr %29, align 8
  %30 = getelementptr inbounds nuw i8, ptr %26, i64 32
  %31 = load i32, ptr %30, align 8
  %32 = getelementptr inbounds nuw i8, ptr %25, i64 32
  store i32 %31, ptr %32, align 8
  %33 = getelementptr inbounds nuw i8, ptr %26, i64 36
  %34 = load i32, ptr %33, align 4
  %35 = getelementptr inbounds nuw i8, ptr %25, i64 36
  store i32 %34, ptr %35, align 4
  %36 = getelementptr inbounds nuw i8, ptr %26, i64 40
  %37 = load i16, ptr %36, align 8
  %38 = getelementptr inbounds nuw i8, ptr %25, i64 40
  store i16 %37, ptr %38, align 8
  %39 = getelementptr inbounds nuw i8, ptr %26, i64 42
  %40 = load i8, ptr %39, align 2, !range !4, !noundef !5
  %41 = getelementptr inbounds nuw i8, ptr %25, i64 42
  store i8 %40, ptr %41, align 2
  %indvars.iv.next = add nuw nsw i64 %indvars.iv, 1
  br label %.split.split, !llvm.loop !8
}